; Function Attrs: nounwind uwtable
define ptr @l_Lean_Elab_elabTerminationHints___at___private_Lean_Elab_LetRec_0__Lean_Elab_Term_mkLetRecDeclView___spec__4___lambda__5(ptr noundef %0, ptr noundef %1, ptr noundef readnone captures(none) %2, ptr noundef %3, ptr noundef %4, ptr noundef %5, ptr noundef %6, ptr noundef %7, ptr noundef %8, ptr noundef %9, ptr noundef %10) local_unnamed_addr #0 {
  tail call void @lean_inc_heartbeat() #5
  %12 = tail call noalias ptr @mi_malloc_small(i64 noundef 32) #5
  %13 = icmp eq ptr %12, null
  br i1 %13, label %14, label %lean_alloc_ctor.exit

14:                                               ; preds = %11
  tail call void @lean_internal_panic_out_of_memory() #6
  unreachable

lean_alloc_ctor.exit:                             ; preds = %11
  %15 = getelementptr inbounds nuw i8, ptr %12, i64 4
  %16 = getelementptr inbounds nuw i8, ptr %12, i64 24
  store i64 0, ptr %16, align 8, !tbaa !12
  store i32 1, ptr %12, align 4, !tbaa !4
  store i32 131104, ptr %15, align 4
  %17 = getelementptr inbounds nuw i8, ptr %12, i64 8
  store ptr %0, ptr %17, align 8, !tbaa !10
  %18 = getelementptr inbounds nuw i8, ptr %12, i64 16
  store ptr %3, ptr %18, align 8, !tbaa !10
  tail call void @lean_inc_heartbeat() #5
  %19 = tail call noalias ptr @mi_malloc_small(i64 noundef 16) #5
  %20 = icmp eq ptr %19, null
  br i1 %20, label %21, label %lean_alloc_ctor.exit17

21:                                               ; preds = %lean_alloc_ctor.exit
  tail call void @lean_internal_panic_out_of_memory() #6
  unreachable

lean_alloc_ctor.exit17:                           ; preds = %lean_alloc_ctor.exit
  %22 = getelementptr inbounds nuw i8, ptr %19, i64 4
  store i32 1, ptr %19, align 4, !tbaa !4
  store i32 16842768, ptr %22, align 4
  %23 = getelementptr inbounds nuw i8, ptr %19, i64 8
  store ptr %12, ptr %23, align 8, !tbaa !10
  %24 = tail call ptr @lean_apply_8(ptr noundef %1, ptr noundef nonnull %19, ptr noundef %4, ptr noundef %5, ptr noundef %6, ptr noundef %7, ptr noundef %8, ptr noundef %9, ptr noundef %10) #5
  ret ptr %24
}